target datalayout = "e-m:e-p270:32:32-p271:32:32-p272:64:64-i64:64-i128:128-f80:128-n8:16:32:64-S128"
target triple = "x86_64-pc-linux-gnu"

%"class.tl::unexpected" = type { i32 }
%"struct.LIEF::dsc::Dylib::extract_opt_t" = type { i8, i8, i8, i8, i8, [3 x i8], %"class.tl::expected.106" }
%"class.tl::expected.106" = type { %"struct.tl::detail::expected_move_assign_base.base.119", [3 x i8] }
%"struct.tl::detail::expected_move_assign_base.base.119" = type { %"struct.tl::detail::expected_copy_assign_base.base.118" }
%"struct.tl::detail::expected_copy_assign_base.base.118" = type { %"struct.tl::detail::expected_move_base.base.117" }
%"struct.tl::detail::expected_move_base.base.117" = type { %"struct.tl::detail::expected_copy_base.base.116" }
%"struct.tl::detail::expected_copy_base.base.116" = type { %"struct.tl::detail::expected_operations_base.base.115" }
%"struct.tl::detail::expected_operations_base.base.115" = type { %"struct.tl::detail::expected_storage_base.base.114" }
%"struct.tl::detail::expected_storage_base.base.114" = type <{ %union.anon.113, i8 }>
%union.anon.113 = type { %"class.tl::unexpected" }
%"struct.tl::detail::expected_storage_base.112" = type <{ %union.anon.113, i8, [3 x i8] }>

; Function Attrs: mustprogress nounwind uwtable
define linkonce_odr hidden void @_ZN2tl6detail21expected_storage_baseIb11lief_errorsLb1ELb1EEC2Ev(ptr noundef nonnull align 4 dereferenceable(5) %0) unnamed_addr #1 comdat align 2 {
  %2 = alloca ptr, align 8
  store ptr %0, ptr %2, align 8, !tbaa !276
  %3 = load ptr, ptr %2, align 8
  %4 = getelementptr inbounds nuw %"struct.tl::detail::expected_storage_base.112", ptr %3, i32 0, i32 0
  store i8 0, ptr %4, align 4, !tbaa !10
  %5 = getelementptr inbounds nuw %"struct.tl::detail::expected_storage_base.112", ptr %3, i32 0, i32 1
  store i8 1, ptr %5, align 4, !tbaa !278
  ret void
}

; Function Attrs: inlinehint mustprogress nounwind uwtable
define linkonce_odr hidden void @_ZN2tl6detail24expected_operations_baseIb11lief_errorsEC2Ev(ptr noundef nonnull align 4 dereferenceable(5) %0) unnamed_addr #5 comdat align 2 {
  %2 = alloca ptr, align 8
  store ptr %0, ptr %2, align 8, !tbaa !274
  %3 = load ptr, ptr %2, align 8
  call void @_ZN2tl6detail21expected_storage_baseIb11lief_errorsLb1ELb1EEC2Ev(ptr noundef nonnull align 4 dereferenceable(5) %3)
  ret void
}

; Function Attrs: inlinehint mustprogress nounwind uwtable
define linkonce_odr hidden void @_ZN2tl6detail18expected_copy_baseIb11lief_errorsLb1EEC2Ev(ptr noundef nonnull align 4 dereferenceable(5) %0) unnamed_addr #5 comdat align 2 {
  %2 = alloca ptr, align 8
  store ptr %0, ptr %2, align 8, !tbaa !272
  %3 = load ptr, ptr %2, align 8
  call void @_ZN2tl6detail24expected_operations_baseIb11lief_errorsEC2Ev(ptr noundef nonnull align 4 dereferenceable(5) %3)
  ret void
}

; Function Attrs: inlinehint mustprogress nounwind uwtable
define linkonce_odr hidden void @_ZN2tl6detail18expected_move_baseIb11lief_errorsLb1EEC2Ev(ptr noundef nonnull align 4 dereferenceable(5) %0) unnamed_addr #5 comdat align 2 {
  %2 = alloca ptr, align 8
  store ptr %0, ptr %2, align 8, !tbaa !270
  %3 = load ptr, ptr %2, align 8
  call void @_ZN2tl6detail18expected_copy_baseIb11lief_errorsLb1EEC2Ev(ptr noundef nonnull align 4 dereferenceable(5) %3)
  ret void
}

; Function Attrs: inlinehint mustprogress nounwind uwtable
define linkonce_odr hidden void @_ZN2tl6detail25expected_copy_assign_baseIb11lief_errorsLb1EEC2Ev(ptr noundef nonnull align 4 dereferenceable(5) %0) unnamed_addr #5 comdat align 2 {
  %2 = alloca ptr, align 8
  store ptr %0, ptr %2, align 8, !tbaa !268
  %3 = load ptr, ptr %2, align 8
  call void @_ZN2tl6detail18expected_move_baseIb11lief_errorsLb1EEC2Ev(ptr noundef nonnull align 4 dereferenceable(5) %3)
  ret void
}

; Function Attrs: inlinehint mustprogress nounwind uwtable
define linkonce_odr hidden void @_ZN2tl6detail25expected_move_assign_baseIb11lief_errorsLb1EEC2Ev(ptr noundef nonnull align 4 dereferenceable(5) %0) unnamed_addr #5 comdat align 2 {
  %2 = alloca ptr, align 8
  store ptr %0, ptr %2, align 8, !tbaa !266
  %3 = load ptr, ptr %2, align 8
  call void @_ZN2tl6detail25expected_copy_assign_baseIb11lief_errorsLb1EEC2Ev(ptr noundef nonnull align 4 dereferenceable(5) %3)
  ret void
}

; Function Attrs: mustprogress nounwind uwtable
define linkonce_odr hidden void @_ZN2tl8expectedIb11lief_errorsEC2Ev(ptr noundef nonnull align 4 dereferenceable(5) %0) unnamed_addr #1 comdat align 2 {
  %2 = alloca ptr, align 8
  store ptr %0, ptr %2, align 8, !tbaa !66
  %3 = load ptr, ptr %2, align 8
  call void @_ZN2tl6detail25expected_move_assign_baseIb11lief_errorsLb1EEC2Ev(ptr noundef nonnull align 4 dereferenceable(5) %3)
  ret void
}

; Function Attrs: mustprogress nounwind uwtable
define void @_ZN4LIEF3dsc5Dylib13extract_opt_tC2Ev(ptr noundef nonnull align 4 dereferenceable(16) %0) unnamed_addr #1 align 2 {
  %2 = alloca ptr, align 8
  store ptr %0, ptr %2, align 8, !tbaa !50
  %3 = load ptr, ptr %2, align 8
  %4 = getelementptr inbounds nuw %"struct.LIEF::dsc::Dylib::extract_opt_t", ptr %3, i32 0, i32 0
  store i8 1, ptr %4, align 4, !tbaa !52
  %5 = getelementptr inbounds nuw %"struct.LIEF::dsc::Dylib::extract_opt_t", ptr %3, i32 0, i32 1
  store i8 0, ptr %5, align 1, !tbaa !62
  %6 = getelementptr inbounds nuw %"struct.LIEF::dsc::Dylib::extract_opt_t", ptr %3, i32 0, i32 2
  store i8 0, ptr %6, align 2, !tbaa !63
  %7 = getelementptr inbounds nuw %"struct.LIEF::dsc::Dylib::extract_opt_t", ptr %3, i32 0, i32 3
  store i8 0, ptr %7, align 1, !tbaa !64
  %8 = getelementptr inbounds nuw %"struct.LIEF::dsc::Dylib::extract_opt_t", ptr %3, i32 0, i32 4
  store i8 0, ptr %8, align 4, !tbaa !65
  %9 = getelementptr inbounds nuw %"struct.LIEF::dsc::Dylib::extract_opt_t", ptr %3, i32 0, i32 6
  call void @_ZN2tl8expectedIb11lief_errorsEC2Ev(ptr noundef nonnull align 4 dereferenceable(5) %9)
  ret void
}