; Function Attrs: mustprogress nofree norecurse nosync nounwind willreturn memory(argmem: write) uwtable
define void @_ZN4LIEF3dsc5Dylib13extract_opt_tC2Ev(ptr noundef nonnull writeonly align 4 captures(none) dereferenceable(16) initializes((0, 5), (8, 9), (12, 13)) %0) unnamed_addr #2 align 2 {
  store i8 1, ptr %0, align 4, !tbaa !52
  %2 = getelementptr inbounds nuw i8, ptr %0, i64 1
  %3 = getelementptr inbounds nuw i8, ptr %0, i64 8
  store i8 0, ptr %3, align 4, !tbaa !24
  %4 = getelementptr inbounds nuw i8, ptr %0, i64 12
  store i32 0, ptr %2, align 1
  store i8 1, ptr %4, align 4, !tbaa !62
  ret void
}